target datalayout = "e-m:e-p270:32:32-p271:32:32-p272:64:64-i64:64-i128:128-f80:128-n8:16:32:64-S128"
target triple = "x86_64-pc-linux-gnu"

%"struct.std::_Rb_tree_header" = type { %"struct.std::_Rb_tree_node_base", i64 }
%"struct.std::_Rb_tree_node_base" = type { i32, ptr, ptr, ptr }
%"class.Assimp::FBXExporter" = type { i8, ptr, ptr, %"class.std::shared_ptr", %"class.std::vector", %"class.std::map", %"class.std::vector.6", %"class.std::vector.6", %"class.std::map", %"class.std::map.11", i64 }
%"class.std::shared_ptr" = type { %"class.std::__shared_ptr" }
%"class.std::__shared_ptr" = type { ptr, %"class.std::__shared_count" }
%"class.std::__shared_count" = type { ptr }
%"class.std::vector" = type { %"struct.std::_Vector_base" }
%"struct.std::_Vector_base" = type { %"struct.std::_Vector_base<Assimp::FBX::Node, std::allocator<Assimp::FBX::Node>>::_Vector_impl" }
%"struct.std::_Vector_base<Assimp::FBX::Node, std::allocator<Assimp::FBX::Node>>::_Vector_impl" = type { %"struct.std::_Vector_base<Assimp::FBX::Node, std::allocator<Assimp::FBX::Node>>::_Vector_impl_data" }
%"struct.std::_Vector_base<Assimp::FBX::Node, std::allocator<Assimp::FBX::Node>>::_Vector_impl_data" = type { ptr, ptr, ptr }
%"class.std::vector.6" = type { %"struct.std::_Vector_base.7" }
%"struct.std::_Vector_base.7" = type { %"struct.std::_Vector_base<long, std::allocator<long>>::_Vector_impl" }
%"struct.std::_Vector_base<long, std::allocator<long>>::_Vector_impl" = type { %"struct.std::_Vector_base<long, std::allocator<long>>::_Vector_impl_data" }
%"struct.std::_Vector_base<long, std::allocator<long>>::_Vector_impl_data" = type { ptr, ptr, ptr }
%"class.std::map" = type { %"class.std::_Rb_tree" }
%"class.std::_Rb_tree" = type { %"struct.std::_Rb_tree<const aiNode *, std::pair<const aiNode *const, long>, std::_Select1st<std::pair<const aiNode *const, long>>, std::less<const aiNode *>>::_Rb_tree_impl" }
%"struct.std::_Rb_tree<const aiNode *, std::pair<const aiNode *const, long>, std::_Select1st<std::pair<const aiNode *const, long>>, std::less<const aiNode *>>::_Rb_tree_impl" = type { [8 x i8], %"struct.std::_Rb_tree_header" }
%"class.std::map.11" = type { %"class.std::_Rb_tree.12" }
%"class.std::_Rb_tree.12" = type { %"struct.std::_Rb_tree<std::__cxx11::basic_string<char>, std::pair<const std::__cxx11::basic_string<char>, long>, std::_Select1st<std::pair<const std::__cxx11::basic_string<char>, long>>, std::less<std::__cxx11::basic_string<char>>>::_Rb_tree_impl" }
%"struct.std::_Rb_tree<std::__cxx11::basic_string<char>, std::pair<const std::__cxx11::basic_string<char>, long>, std::_Select1st<std::pair<const std::__cxx11::basic_string<char>, long>>, std::less<std::__cxx11::basic_string<char>>>::_Rb_tree_impl" = type { [8 x i8], %"struct.std::_Rb_tree_header" }

@_ZN6Assimp11FBXExporterC1EPK7aiScenePKNS_16ExportPropertiesE = hidden unnamed_addr alias void (ptr, ptr, ptr), ptr @_ZN6Assimp11FBXExporterC2EPK7aiScenePKNS_16ExportPropertiesE

; Function Attrs: mustprogress uwtable
define hidden void @_ZN6Assimp15ExportSceneFBXAEPKcPNS_8IOSystemEPK7aiScenePKNS_16ExportPropertiesE(ptr noundef %0, ptr noundef %1, ptr noundef %2, ptr noundef %3) #3 personality ptr @__gxx_personality_v0 {
  %5 = alloca ptr, align 8
  %6 = alloca ptr, align 8
  %7 = alloca ptr, align 8
  %8 = alloca ptr, align 8
  %9 = alloca %"class.Assimp::FBXExporter", align 8
  %10 = alloca ptr, align 8
  %11 = alloca i32, align 4
  store ptr %0, ptr %5, align 8
  store ptr %1, ptr %6, align 8
  store ptr %2, ptr %7, align 8
  store ptr %3, ptr %8, align 8
  call void @llvm.lifetime.start.p0(i64 264, ptr %9) #4
  %12 = load ptr, ptr %7, align 8
  %13 = load ptr, ptr %8, align 8
  call void @_ZN6Assimp11FBXExporterC1EPK7aiScenePKNS_16ExportPropertiesE(ptr noundef nonnull align 8 dereferenceable(264) %9, ptr noundef %12, ptr noundef %13)
  %14 = load ptr, ptr %5, align 8
  %15 = load ptr, ptr %6, align 8
  invoke void @_ZN6Assimp11FBXExporter11ExportAsciiEPKcPNS_8IOSystemE(ptr noundef nonnull align 8 dereferenceable(264) %9, ptr noundef %14, ptr noundef %15)
          to label %16 unwind label %17

16:                                               ; preds = %4
  call void @_ZN6Assimp11FBXExporterD2Ev(ptr noundef nonnull align 8 dereferenceable(264) %9) #4
  call void @llvm.lifetime.end.p0(i64 264, ptr %9) #4
  ret void

17:                                               ; preds = %4
  %18 = landingpad { ptr, i32 }
          cleanup
  %19 = extractvalue { ptr, i32 } %18, 0
  store ptr %19, ptr %10, align 8
  %20 = extractvalue { ptr, i32 } %18, 1
  store i32 %20, ptr %11, align 4
  call void @_ZN6Assimp11FBXExporterD2Ev(ptr noundef nonnull align 8 dereferenceable(264) %9) #4
  call void @llvm.lifetime.end.p0(i64 264, ptr %9) #4
  br label %21

21:                                               ; preds = %17
  %22 = load ptr, ptr %10, align 8
  %23 = load i32, ptr %11, align 4
  %24 = insertvalue { ptr, i32 } poison, ptr %22, 0
  %25 = insertvalue { ptr, i32 } %24, i32 %23, 1
  resume { ptr, i32 } %25
}