; Function Attrs: mustprogress uwtable
define hidden void @_ZN6Assimp15ExportSceneFBXAEPKcPNS_8IOSystemEPK7aiScenePKNS_16ExportPropertiesE(ptr noundef %0, ptr noundef %1, ptr noundef %2, ptr noundef %3) local_unnamed_addr #3 personality ptr @__gxx_personality_v0 {
  %5 = alloca %"class.Assimp::FBXExporter", align 8
  call void @llvm.lifetime.start.p0(i64 264, ptr nonnull %5) #34
  store i8 0, ptr %5, align 8
  %6 = getelementptr inbounds nuw i8, ptr %5, i64 8
  store ptr %2, ptr %6, align 8
  %7 = getelementptr inbounds nuw i8, ptr %5, i64 16
  store ptr %3, ptr %7, align 8
  %8 = getelementptr inbounds nuw i8, ptr %5, i64 24
  %9 = getelementptr inbounds nuw i8, ptr %5, i64 72
  %10 = getelementptr inbounds nuw i8, ptr %5, i64 88
  call void @llvm.memset.p0.i64(ptr noundef nonnull align 8 dereferenceable(64) %8, i8 0, i64 64, i1 false)
  store ptr %9, ptr %10, align 8
  %11 = getelementptr inbounds nuw i8, ptr %5, i64 96
  store ptr %9, ptr %11, align 8
  %12 = getelementptr inbounds nuw i8, ptr %5, i64 104
  %13 = getelementptr inbounds nuw i8, ptr %5, i64 168
  %14 = getelementptr inbounds nuw i8, ptr %5, i64 184
  call void @llvm.memset.p0.i64(ptr noundef nonnull align 8 dereferenceable(80) %12, i8 0, i64 80, i1 false)
  store ptr %13, ptr %14, align 8
  %15 = getelementptr inbounds nuw i8, ptr %5, i64 192
  store ptr %13, ptr %15, align 8
  %16 = getelementptr inbounds nuw i8, ptr %5, i64 200
  store i64 0, ptr %16, align 8
  %17 = getelementptr inbounds nuw i8, ptr %5, i64 216
  store i32 0, ptr %17, align 8
  %18 = getelementptr inbounds nuw i8, ptr %5, i64 224
  store ptr null, ptr %18, align 8
  %19 = getelementptr inbounds nuw i8, ptr %5, i64 232
  store ptr %17, ptr %19, align 8
  %20 = getelementptr inbounds nuw i8, ptr %5, i64 240
  store ptr %17, ptr %20, align 8
  %21 = getelementptr inbounds nuw i8, ptr %5, i64 248
  store i64 0, ptr %21, align 8
  %22 = getelementptr inbounds nuw i8, ptr %5, i64 256
  store i64 999999, ptr %22, align 8
  invoke void @_ZN6Assimp11FBXExporter11ExportAsciiEPKcPNS_8IOSystemE(ptr noundef nonnull align 8 dereferenceable(264) %5, ptr noundef %0, ptr noundef %1)
          to label %23 unwind label %24

23:                                               ; preds = %4
  call void @_ZN6Assimp11FBXExporterD2Ev(ptr noundef nonnull align 8 dereferenceable(264) %5) #34
  call void @llvm.lifetime.end.p0(i64 264, ptr nonnull %5) #34
  ret void

24:                                               ; preds = %4
  %25 = landingpad { ptr, i32 }
          cleanup
  call void @_ZN6Assimp11FBXExporterD2Ev(ptr noundef nonnull align 8 dereferenceable(264) %5) #34
  call void @llvm.lifetime.end.p0(i64 264, ptr nonnull %5) #34
  resume { ptr, i32 } %25
}